(dp0
VN_MD_P_DCD
p1
Vcontinuous
p2
sVPCT_DTHS_HSPC
p3
Vcontinuous
p4
sVPCT_PTNT_10_MD
p5
Vcontinuous
p6
sVMS_VISIT_P_DCD
p7
Vcontinuous
p8
sVMD_PYMT_P_DCD
p9
Vcontinuous
p10
sVMDCR_SPND_OUTP
p11
Vcontinuous
p12
sVPCT_DTHS_W_ICU
p13
Vcontinuous
p14
sVPARTB_OTHER
p15
Vcontinuous
p16
sVMDCR_SPND_HSPC
p17
Vcontinuous
p18
sVMDCR_SPND_AMBLNC
p19
Vcontinuous
p20
sVPYMT_P_MD_VISIT
p21
Vcontinuous
p22
sVMED_SURG_DAYS_P_DCD
p23
Vcontinuous
p24
sVSNF_BEDS
p25
Vcontinuous
p26
sVMDCR_SPND_LTC
p27
Vcontinuous
p28
sVHOSP_REIMB_RATIO
p29
Vcontinuous
p30
sVPCT_DTHS_HOSP
p31
Vcontinuous
p32
sVTTL_IC_DAYS_P_DCD
p33
Vcontinuous
p34
sVMD_VISIT_PYMT_RATIO
p35
Vcontinuous
p36
sVREIMB_P_DAY_RATIO
p37
Vcontinuous
p38
sVHOSP_DAY_RATIO
p39
Vcontinuous
p40
sVMS_FTE
p41
Vcontinuous
p42
sVMDCR_SPND_INP
p43
Vcontinuous
p44
sVHSPC_DAYS_P_DCD
p45
Vcontinuous
p46
sVPYMT_P_VISIT_RATIO
p47
Vcontinuous
p48
sVPARTB_TESTS
p49
Vcontinuous
p50
sVPC_VISIT_P_DCD
p51
Vcontinuous
p52
sVHI_IC_BEDS
p53
Vcontinuous
p54
sVMED_SURG_BEDS
p55
Vcontinuous
p56
sVPARTB_PROCS
p57
Vcontinuous
p58
sVPC_FTE
p59
Vcontinuous
p60
sVTTL_MDCR_SPND
p61
Vcontinuous
p62
sVMD_VISIT_P_DCD
p63
Vcontinuous
p64
sVTOTAL_FTE
p65
Vcontinuous
p66
sVEQP_COPAY_P_DCD
p67
Vcontinuous
p68
sVN_DEATH_ILL
p69
Vcontinuous
p70
sVPARTB_IMAG
p71
Vcontinuous
p72
sVINT_IC_DAYS_P_DCD
p73
Vcontinuous
p74
sVHOSP_DAYS_P_DCD2
p75
Vcontinuous
p76
sVCHF_SCORE
p77
Vcontinuous
p78
sVMDCR_SPND_OTHER
p79
Vcontinuous
p80
sVAMI_SCORE
p81
Vcontinuous
p82
sVRNS_REQ
p83
Vcontinuous
p84
sVMS_PC_RATIO
p85
Vcontinuous
p86
sVREIMB_P_PTNT_DAY
p87
Vcontinuous
p88
sVTTL_PARTB
p89
Vcontinuous
p90
sVMD_VISIT_RATIO
p91
Vcontinuous
p92
sVSNF_DAYS_P_DCD
p93
Vcontinuous
p94
sVHHA_VISIT_P_DCD
p95
Vcontinuous
p96
sVNAME
p97
Vignore
p98
sVTTL_MD_VISIT_P_DCD
p99
Vcontinuous
p100
sVMS_PC_RATIO_P_DCD
p101
Vcontinuous
p102
sVHOSP_DAYS_P_DCD
p103
Vcontinuous
p104
sVHI_IC_DAYS_P_DCD
p105
Vcontinuous
p106
sVQUAL_SCORE
p107
Vcontinuous
p108
sVHOSP_BEDS
p109
Vcontinuous
p110
sVPARTB_EVAL_MGMT
p111
Vcontinuous
p112
sVMD_COPAY_P_DCD
p113
Vcontinuous
p114
sVMDCR_SPND_EQP
p115
Vcontinuous
p116
sVTTL_COPAY_P_DCD
p117
Vcontinuous
p118
sVTTL_IC_BEDS
p119
Vcontinuous
p120
sVHOSP_REIMB_P_DCD
p121
Vcontinuous
p122
sVMDCR_SPND_HOME
p123
Vcontinuous
p124
sVINT_IC_BEDS
p125
Vcontinuous
p126
s.